target datalayout = "e-m:e-p270:32:32-p271:32:32-p272:64:64-i64:64-i128:128-f80:128-n8:16:32:64-S128"
target triple = "x86_64-pc-linux-gnu"

%"struct.Luau::BytecodeBuilder::TableShape" = type { [32 x i32], i32 }

; Function Attrs: mustprogress nounwind uwtable
define dso_local noundef i64 @_ZNK4Luau15BytecodeBuilder14TableShapeHashclERKNS0_10TableShapeE(ptr noundef nonnull align 1 dereferenceable(1) %0, ptr noundef nonnull align 4 dereferenceable(132) %1) #0 align 2 {
  %3 = alloca ptr, align 8
  %4 = alloca ptr, align 8
  %5 = alloca i32, align 4
  %6 = alloca i64, align 8
  store ptr %0, ptr %3, align 8, !tbaa !30
  store ptr %1, ptr %4, align 8, !tbaa !14
  call void @llvm.lifetime.start.p0(i64 4, ptr %5) #19
  store i32 -2128831035, ptr %5, align 4, !tbaa !28
  call void @llvm.lifetime.start.p0(i64 8, ptr %6) #19
  store i64 0, ptr %6, align 8, !tbaa !32
  br label %7

7:                                                ; preds = %25, %2
  %8 = load i64, ptr %6, align 8, !tbaa !32
  %9 = load ptr, ptr %4, align 8, !tbaa !14
  %10 = getelementptr inbounds nuw %"struct.Luau::BytecodeBuilder::TableShape", ptr %9, i32 0, i32 1
  %11 = load i32, ptr %10, align 4, !tbaa !16
  %12 = zext i32 %11 to i64
  %13 = icmp ult i64 %8, %12
  br i1 %13, label %15, label %14

14:                                               ; preds = %7
  call void @llvm.lifetime.end.p0(i64 8, ptr %6) #19
  br label %28

15:                                               ; preds = %7
  %16 = load ptr, ptr %4, align 8, !tbaa !14
  %17 = getelementptr inbounds nuw %"struct.Luau::BytecodeBuilder::TableShape", ptr %16, i32 0, i32 0
  %18 = load i64, ptr %6, align 8, !tbaa !32
  %19 = getelementptr inbounds nuw [32 x i32], ptr %17, i64 0, i64 %18
  %20 = load i32, ptr %19, align 4, !tbaa !28
  %21 = load i32, ptr %5, align 4, !tbaa !28
  %22 = xor i32 %21, %20
  store i32 %22, ptr %5, align 4, !tbaa !28
  %23 = load i32, ptr %5, align 4, !tbaa !28
  %24 = mul i32 %23, 16777619
  store i32 %24, ptr %5, align 4, !tbaa !28
  br label %25

25:                                               ; preds = %15
  %26 = load i64, ptr %6, align 8, !tbaa !32
  %27 = add i64 %26, 1
  store i64 %27, ptr %6, align 8, !tbaa !32
  br label %7, !llvm.loop !33

28:                                               ; preds = %14
  %29 = load i32, ptr %5, align 4, !tbaa !28
  %30 = zext i32 %29 to i64
  call void @llvm.lifetime.end.p0(i64 4, ptr %5) #19
  ret i64 %30
}