; Function Attrs: mustprogress nofree norecurse nosync nounwind willreturn memory(argmem: read) uwtable
define dso_local noundef range(i64 0, 4294967296) i64 @_ZNK4Luau15BytecodeBuilder14TableShapeHashclERKNS0_10TableShapeE(ptr noundef nonnull readnone align 1 captures(none) dereferenceable(1) %0, ptr noundef nonnull readonly align 4 captures(none) dereferenceable(132) %1) local_unnamed_addr #5 align 2 {
  %3 = getelementptr inbounds nuw i8, ptr %1, i64 128
  %4 = load i32, ptr %3, align 4, !tbaa !12
  %5 = zext i32 %4 to i64
  %.not = icmp eq i32 %4, 0
  br i1 %.not, label %._crit_edge, label %.lr.ph

._crit_edge.loopexit:                             ; preds = %.lr.ph
  %6 = zext i32 %10 to i64
  br label %._crit_edge

._crit_edge:                                      ; preds = %._crit_edge.loopexit, %2
  %.07.lcssa = phi i64 [ 2166136261, %2 ], [ %6, %._crit_edge.loopexit ]
  ret i64 %.07.lcssa

.lr.ph:                                           ; preds = %2, %.lr.ph
  %.09 = phi i64 [ %11, %.lr.ph ], [ 0, %2 ]
  %.078 = phi i32 [ %10, %.lr.ph ], [ -2128831035, %2 ]
  %7 = getelementptr inbounds nuw [32 x i32], ptr %1, i64 0, i64 %.09
  %8 = load i32, ptr %7, align 4, !tbaa !19
  %9 = xor i32 %8, %.078
  %10 = mul i32 %9, 16777619
  %11 = add nuw nsw i64 %.09, 1
  %exitcond.not = icmp eq i64 %11, %5
  br i1 %exitcond.not, label %._crit_edge.loopexit, label %.lr.ph, !llvm.loop !20
}